; Function Attrs: mustprogress uwtable
define dso_local void @_ZN34btDeformableMultiBodyDynamicsWorld14removeSoftBodyEP10btSoftBody(ptr noundef nonnull align 8 dereferenceable(1056) %0, ptr noundef %1) local_unnamed_addr #4 align 2 {
  %3 = getelementptr inbounds nuw i8, ptr %0, i64 848
  %4 = load ptr, ptr %3, align 8, !tbaa !81
  %5 = load ptr, ptr %4, align 8, !tbaa !50
  %6 = getelementptr inbounds nuw i8, ptr %5, i64 208
  %7 = load ptr, ptr %6, align 8
  %8 = tail call noundef ptr %7(ptr noundef nonnull align 8 dereferenceable(609) %4)
  %9 = getelementptr inbounds nuw i8, ptr %8, i64 4
  %10 = load i32, ptr %9, align 4, !tbaa !439
  %11 = icmp sgt i32 %10, 0
  br i1 %11, label %.lr.ph.i, label %_ZN34btDeformableMultiBodyDynamicsWorld19removeSoftBodyForceEP10btSoftBody.exit

.lr.ph.i:                                         ; preds = %2
  %12 = getelementptr inbounds nuw i8, ptr %8, i64 16
  br label %13

13:                                               ; preds = %13, %.lr.ph.i
  %indvars.iv.i = phi i64 [ 0, %.lr.ph.i ], [ %indvars.iv.next.i, %13 ]
  %14 = load ptr, ptr %12, align 8, !tbaa !444
  %15 = getelementptr inbounds nuw ptr, ptr %14, i64 %indvars.iv.i
  %16 = load ptr, ptr %15, align 8, !tbaa !445
  %17 = load ptr, ptr %16, align 8, !tbaa !50
  %18 = getelementptr inbounds nuw i8, ptr %17, i64 104
  %19 = load ptr, ptr %18, align 8
  tail call void %19(ptr noundef nonnull align 8 dereferenceable(48) %16, ptr noundef %1)
  %indvars.iv.next.i = add nuw nsw i64 %indvars.iv.i, 1
  %20 = load i32, ptr %9, align 4, !tbaa !439
  %21 = sext i32 %20 to i64
  %22 = icmp slt i64 %indvars.iv.next.i, %21
  br i1 %22, label %13, label %_ZN34btDeformableMultiBodyDynamicsWorld19removeSoftBodyForceEP10btSoftBody.exit, !llvm.loop !451

_ZN34btDeformableMultiBodyDynamicsWorld19removeSoftBodyForceEP10btSoftBody.exit: ; preds = %13, %2
  %23 = getelementptr inbounds nuw i8, ptr %0, i64 860
  %24 = load i32, ptr %23, align 4, !tbaa !142
  %25 = icmp sgt i32 %24, 0
  br i1 %25, label %.lr.ph.i.i, label %_ZN20btAlignedObjectArrayIP10btSoftBodyE6removeERKS1_.exit

.lr.ph.i.i:                                       ; preds = %_ZN34btDeformableMultiBodyDynamicsWorld19removeSoftBodyForceEP10btSoftBody.exit
  %26 = getelementptr inbounds nuw i8, ptr %0, i64 872
  %27 = load ptr, ptr %26, align 8, !tbaa !141
  %wide.trip.count.i.i = zext nneg i32 %24 to i64
  br label %28

28:                                               ; preds = %32, %.lr.ph.i.i
  %indvars.iv.i.i = phi i64 [ 0, %.lr.ph.i.i ], [ %indvars.iv.next.i.i, %32 ]
  %29 = getelementptr inbounds nuw ptr, ptr %27, i64 %indvars.iv.i.i
  %30 = load ptr, ptr %29, align 8, !tbaa !232
  %31 = icmp eq ptr %30, %1
  br i1 %31, label %_ZNK20btAlignedObjectArrayIP10btSoftBodyE16findLinearSearchERKS1_.exit.i, label %32

32:                                               ; preds = %28
  %indvars.iv.next.i.i = add nuw nsw i64 %indvars.iv.i.i, 1
  %exitcond.not.i.i = icmp eq i64 %indvars.iv.next.i.i, %wide.trip.count.i.i
  br i1 %exitcond.not.i.i, label %_ZN20btAlignedObjectArrayIP10btSoftBodyE6removeERKS1_.exit, label %28, !llvm.loop !452

_ZNK20btAlignedObjectArrayIP10btSoftBodyE16findLinearSearchERKS1_.exit.i: ; preds = %28
  %33 = trunc nuw nsw i64 %indvars.iv.i.i to i32
  %34 = icmp sgt i32 %24, %33
  br i1 %34, label %35, label %_ZN20btAlignedObjectArrayIP10btSoftBodyE6removeERKS1_.exit

35:                                               ; preds = %_ZNK20btAlignedObjectArrayIP10btSoftBodyE16findLinearSearchERKS1_.exit.i
  %36 = add nsw i32 %24, -1
  %sext.i = shl i64 %indvars.iv.i.i, 32
  %37 = ashr exact i64 %sext.i, 29
  %38 = getelementptr inbounds i8, ptr %27, i64 %37
  %39 = load ptr, ptr %38, align 8, !tbaa !232
  %40 = sext i32 %36 to i64
  %41 = getelementptr inbounds ptr, ptr %27, i64 %40
  %42 = load ptr, ptr %41, align 8, !tbaa !232
  store ptr %42, ptr %38, align 8, !tbaa !232
  store ptr %39, ptr %41, align 8, !tbaa !232
  store i32 %36, ptr %23, align 4, !tbaa !142
  br label %_ZN20btAlignedObjectArrayIP10btSoftBodyE6removeERKS1_.exit

_ZN20btAlignedObjectArrayIP10btSoftBodyE6removeERKS1_.exit: ; preds = %32, %_ZN34btDeformableMultiBodyDynamicsWorld19removeSoftBodyForceEP10btSoftBody.exit, %_ZNK20btAlignedObjectArrayIP10btSoftBodyE16findLinearSearchERKS1_.exit.i, %35
  %43 = getelementptr inbounds nuw i8, ptr %0, i64 856
  tail call void @_ZN16btCollisionWorld21removeCollisionObjectEP17btCollisionObject(ptr noundef nonnull align 8 dereferenceable(121) %0, ptr noundef %1)
  %44 = load ptr, ptr %3, align 8, !tbaa !81
  %45 = load ptr, ptr %44, align 8, !tbaa !50
  %46 = getelementptr inbounds nuw i8, ptr %45, i64 144
  %47 = load ptr, ptr %46, align 8
  tail call void %47(ptr noundef nonnull align 8 dereferenceable(609) %44, ptr noundef nonnull align 8 dereferenceable(25) %43, float noundef -1.000000e+00)
  ret void
}